; Function Attrs: mustprogress uwtable
define dso_local void @_ZN3fmt2v97vformatB5cxx11ENS0_17basic_string_viewIcEENS0_17basic_format_argsINS0_20basic_format_contextINS0_8appenderEcEEEE(ptr noalias sret(%"class.std::__cxx11::basic_string") align 8 %agg.result, ptr %fmt.coerce0, i64 %fmt.coerce1, i64 %args.coerce0, ptr %args.coerce1) local_unnamed_addr #4 personality ptr @__gxx_personality_v0 {
entry:
  %ref.tmp.i = alloca %"class.std::__cxx11::basic_string", align 8
  %ref.tmp3.i = alloca %"class.std::allocator", align 1
  %buffer = alloca %"class.fmt::v9::basic_memory_buffer", align 8
  %ref.tmp = alloca %"class.std::allocator", align 1
  call void @_ZNSaIcEC1Ev(ptr noundef nonnull align 1 dereferenceable(1) %ref.tmp) #25
  %ptr_.i.i = getelementptr inbounds i8, ptr %buffer, i64 8
  %capacity_.i.i = getelementptr inbounds i8, ptr %buffer, i64 24
  call void @llvm.memset.p0.i64(ptr noundef nonnull align 8 dereferenceable(24) %ptr_.i.i, i8 0, i64 24, i1 false)
  store ptr getelementptr inbounds ({ [3 x ptr] }, ptr @_ZTVN3fmt2v919basic_memory_bufferIcLm500ESaIcEEE, i64 0, i32 0, i64 2), ptr %buffer, align 8
  %alloc_.i = getelementptr inbounds i8, ptr %buffer, i64 532
  call void @_ZNSaIcEC1ERKS_(ptr noundef nonnull align 1 dereferenceable(1) %alloc_.i, ptr noundef nonnull align 1 dereferenceable(1) %ref.tmp) #25
  %store_.i = getelementptr inbounds i8, ptr %buffer, i64 32
  store ptr %store_.i, ptr %ptr_.i.i, align 8
  store i64 500, ptr %capacity_.i.i, align 8
  call void @_ZNSaIcED1Ev(ptr noundef nonnull align 1 dereferenceable(1) %ref.tmp) #25
  invoke void @_ZN3fmt2v96detail10vformat_toIcEEvRNS1_6bufferIT_EENS0_17basic_string_viewIS4_EENS0_17basic_format_argsINS0_20basic_format_contextINSt11conditionalIXsr3std7is_sameINS0_13type_identityIS4_E4typeEcEE5valueENS0_8appenderESt20back_insert_iteratorINS3_ISE_EEEE4typeESE_EEEENS1_10locale_refE(ptr noundef nonnull align 8 dereferenceable(32) %buffer, ptr %fmt.coerce0, i64 %fmt.coerce1, i64 %args.coerce0, ptr %args.coerce1, ptr null)
          to label %invoke.cont5 unwind label %lpad3

invoke.cont5:                                     ; preds = %entry
  call void @llvm.lifetime.start.p0(i64 32, ptr nonnull %ref.tmp.i)
  call void @llvm.lifetime.start.p0(i64 1, ptr nonnull %ref.tmp3.i)
  %size_.i.i = getelementptr inbounds i8, ptr %buffer, i64 16
  %0 = load i64, ptr %size_.i.i, align 8, !noalias !15
  call void @_ZNSt7__cxx1112basic_stringIcSt11char_traitsIcESaIcEEC1Ev(ptr noundef nonnull align 8 dereferenceable(32) %ref.tmp.i) #25, !noalias !15
  %call1.i = call noundef i64 @_ZNKSt7__cxx1112basic_stringIcSt11char_traitsIcESaIcEE8max_sizeEv(ptr noundef nonnull align 8 dereferenceable(32) %ref.tmp.i) #25, !noalias !15
  %cmp.i = icmp ult i64 %0, %call1.i
  call void @llvm.assume(i1 %cmp.i)
  call void @_ZNSt7__cxx1112basic_stringIcSt11char_traitsIcESaIcEED1Ev(ptr noundef nonnull align 8 dereferenceable(32) %ref.tmp.i) #25, !noalias !15
  %1 = load ptr, ptr %ptr_.i.i, align 8, !noalias !15
  call void @_ZNSaIcEC1Ev(ptr noundef nonnull align 1 dereferenceable(1) %ref.tmp3.i) #25, !noalias !15
  invoke void @_ZNSt7__cxx1112basic_stringIcSt11char_traitsIcESaIcEEC1EPKcmRKS3_(ptr noundef nonnull align 8 dereferenceable(32) %agg.result, ptr noundef %1, i64 noundef %0, ptr noundef nonnull align 1 dereferenceable(1) %ref.tmp3.i)
          to label %invoke.cont6 unwind label %lpad4.i

lpad4.i:                                          ; preds = %invoke.cont5
  %2 = landingpad { ptr, i32 }
          cleanup
  call void @_ZNSaIcED1Ev(ptr noundef nonnull align 1 dereferenceable(1) %ref.tmp3.i) #25
  br label %lpad3.body

invoke.cont6:                                     ; preds = %invoke.cont5
  call void @_ZNSaIcED1Ev(ptr noundef nonnull align 1 dereferenceable(1) %ref.tmp3.i) #25
  call void @llvm.lifetime.end.p0(i64 32, ptr nonnull %ref.tmp.i)
  call void @llvm.lifetime.end.p0(i64 1, ptr nonnull %ref.tmp3.i)
  %3 = load ptr, ptr %ptr_.i.i, align 8
  %cmp.not.i.i = icmp eq ptr %3, %store_.i
  br i1 %cmp.not.i.i, label %_ZN3fmt2v919basic_memory_bufferIcLm500ESaIcEED2Ev.exit, label %if.then.i.i

if.then.i.i:                                      ; preds = %invoke.cont6
  call void @_ZdlPv(ptr noundef %3) #27
  br label %_ZN3fmt2v919basic_memory_bufferIcLm500ESaIcEED2Ev.exit

_ZN3fmt2v919basic_memory_bufferIcLm500ESaIcEED2Ev.exit: ; preds = %invoke.cont6, %if.then.i.i
  call void @_ZNSaIcED1Ev(ptr noundef nonnull align 1 dereferenceable(1) %alloc_.i) #25
  ret void

lpad3:                                            ; preds = %entry
  %4 = landingpad { ptr, i32 }
          cleanup
  br label %lpad3.body

lpad3.body:                                       ; preds = %lpad4.i, %lpad3
  %eh.lpad-body = phi { ptr, i32 } [ %4, %lpad3 ], [ %2, %lpad4.i ]
  call void @_ZN3fmt2v919basic_memory_bufferIcLm500ESaIcEED2Ev(ptr noundef nonnull align 8 dereferenceable(536) %buffer) #25
  resume { ptr, i32 } %eh.lpad-body
}